target datalayout = "e-m:e-p270:32:32-p271:32:32-p272:64:64-i64:64-i128:128-f80:128-n8:16:32:64-S128"
target triple = "x86_64-pc-linux-gnu"

%struct.ssl_connection_st = type { %struct.ssl_st, ptr, i32, ptr, ptr, ptr, i32, ptr, i32, i32, i32, i32, %struct.OSSL_TIME, %struct.OSSL_TIME, %struct.ossl_statem_st, i32, ptr, ptr, i64, i64, i64, %struct.ossl_quic_tls_callbacks_st, ptr, ptr, %struct.anon, ptr, ptr, ptr, i32, ptr, %struct.ssl_dane_st, ptr, ptr, ptr, ptr, i32, [64 x i8], [64 x i8], [64 x i8], [64 x i8], [64 x i8], [64 x i8], [64 x i8], [64 x i8], [64 x i8], [64 x i8], [64 x i8], [64 x i8], ptr, [64 x i8], i64, i32, i64, [32 x i8], ptr, ptr, ptr, i64, ptr, [32 x i8], i64, i32, ptr, ptr, i32, i32, ptr, ptr, ptr, ptr, ptr, i64, ptr, ptr, i64, i32, i32, i32, i64, i32, i32, i64, i64, i64, %struct.anon.1, ptr, i32, ptr, ptr, ptr, i32, ptr, ptr, ptr, i32, i32, i32, i32, ptr, i64, i32, ptr, %struct.srp_ctx_st, ptr, %struct.record_layer_st, ptr, ptr, ptr, ptr, i64, i32, i32, i32, i64, i64, i64, ptr, ptr, ptr, ptr, ptr, i64, ptr, i64, ptr, i64 }
%struct.ssl_st = type { i32, ptr, ptr, ptr, %struct.CRYPTO_REF_COUNT, ptr, %struct.crypto_ex_data_st }
%struct.CRYPTO_REF_COUNT = type { i32 }
%struct.crypto_ex_data_st = type { ptr, ptr }
%struct.OSSL_TIME = type { i64 }
%struct.ossl_statem_st = type { i32, i32, i32, i32, i32, i32, i32, i32, i32, i32, i32, i32, i32, ptr, ptr, ptr, i8 }
%struct.ossl_quic_tls_callbacks_st = type { ptr, ptr, ptr, ptr, ptr, ptr }
%struct.anon = type { i64, [32 x i8], [32 x i8], ptr, ptr, i32, i32, i32, i32, [2 x i8], i32, i32, i32, i32, %struct.anon.0, [64 x i8], i64, [64 x i8], i64, i32, i32, ptr, i64, ptr, i64, i32, i8, i8, i16, ptr, i16 }
%struct.anon.0 = type { [128 x i8], i64, [128 x i8], i64, i64, i32, ptr, ptr, [4 x ptr], [4 x i16], i64, i32, ptr, i64, ptr, i64, ptr, ptr, ptr, i32, i64, ptr, i32, ptr, i64, ptr, i64, ptr, i64, ptr, ptr, ptr, ptr, i64, i64, ptr, ptr, i32, i32, i32, i32 }
%struct.ssl_dane_st = type { ptr, ptr, ptr, ptr, ptr, i32, i32, i32, i64 }
%struct.anon.1 = type { [29 x i8], ptr, ptr, ptr, i32, ptr, i16, i32, %struct.anon.2, i32, i32, i64, ptr, i64, ptr, i64, ptr, i64, ptr, i64, ptr, i64, ptr, ptr, ptr, ptr, ptr, ptr, ptr, i64, ptr, i64, i32, i32, i32, i32, ptr, i64, i32, i8, i32, [4 x i32], i32, i8, i8, i8, i8 }
%struct.anon.2 = type { ptr, ptr, ptr, i64 }
%struct.srp_ctx_st = type { ptr, ptr, ptr, ptr, ptr, ptr, ptr, ptr, ptr, ptr, ptr, ptr, ptr, ptr, i32, i64 }
%struct.record_layer_st = type { ptr, ptr, ptr, ptr, ptr, ptr, ptr, ptr, i64, i32, i64, [4 x i8], i64, i64, i8, ptr, i32, ptr, ptr, ptr, i64, i64, i64, i64, [32 x %struct.tls_record_st] }
%struct.tls_record_st = type { ptr, i32, i8, ptr, ptr, i64, i64, i16, [8 x i8] }
%struct.ssl_session_st = type { i32, i64, [64 x i8], [512 x i8], i64, [32 x i8], i64, [32 x i8], ptr, ptr, i32, ptr, ptr, ptr, i64, %struct.OSSL_TIME, %struct.OSSL_TIME, %struct.OSSL_TIME, i32, ptr, i64, i32, %struct.crypto_ex_data_st, %struct.anon.3, ptr, ptr, i64, i32, ptr, ptr, ptr, %struct.CRYPTO_REF_COUNT }
%struct.anon.3 = type { ptr, ptr, i64, i64, i32, i32, ptr, i64, i8 }
%struct.PACKET = type { ptr, i64 }

@.str.1 = private unnamed_addr constant [36 x i8] c"../openssl/ssl/statem/statem_srvr.c\00", align 1
@__func__.tls_process_cke_srp = private unnamed_addr constant [20 x i8] c"tls_process_cke_srp\00", align 1

; Function Attrs: inlinehint nounwind uwtable
define internal i64 @PACKET_remaining(ptr noundef %0) #3 {
  %2 = alloca ptr, align 8
  store ptr %0, ptr %2, align 8, !tbaa !3
  %3 = load ptr, ptr %2, align 8, !tbaa !3
  %4 = getelementptr inbounds nuw %struct.PACKET, ptr %3, i32 0, i32 1
  %5 = load i64, ptr %4, align 8, !tbaa !257
  ret i64 %5
}

; Function Attrs: inlinehint nounwind uwtable
define internal i32 @PACKET_peek_bytes(ptr noundef %0, ptr noundef %1, i64 noundef %2) #3 {
  %4 = alloca i32, align 4
  %5 = alloca ptr, align 8
  %6 = alloca ptr, align 8
  %7 = alloca i64, align 8
  store ptr %0, ptr %5, align 8, !tbaa !3
  store ptr %1, ptr %6, align 8, !tbaa !7
  store i64 %2, ptr %7, align 8, !tbaa !9
  %8 = load ptr, ptr %5, align 8, !tbaa !3
  %9 = call i64 @PACKET_remaining(ptr noundef %8)
  %10 = load i64, ptr %7, align 8, !tbaa !9
  %11 = icmp ult i64 %9, %10
  br i1 %11, label %12, label %13

12:                                               ; preds = %3
  store i32 0, ptr %4, align 4
  br label %18

13:                                               ; preds = %3
  %14 = load ptr, ptr %5, align 8, !tbaa !3
  %15 = getelementptr inbounds nuw %struct.PACKET, ptr %14, i32 0, i32 0
  %16 = load ptr, ptr %15, align 8, !tbaa !256
  %17 = load ptr, ptr %6, align 8, !tbaa !7
  store ptr %16, ptr %17, align 8, !tbaa !168
  store i32 1, ptr %4, align 4
  br label %18

18:                                               ; preds = %13, %12
  %19 = load i32, ptr %4, align 4
  ret i32 %19
}

; Function Attrs: inlinehint nounwind uwtable
define internal void @packet_forward(ptr noundef %0, i64 noundef %1) #3 {
  %3 = alloca ptr, align 8
  %4 = alloca i64, align 8
  store ptr %0, ptr %3, align 8, !tbaa !3
  store i64 %1, ptr %4, align 8, !tbaa !9
  %5 = load i64, ptr %4, align 8, !tbaa !9
  %6 = load ptr, ptr %3, align 8, !tbaa !3
  %7 = getelementptr inbounds nuw %struct.PACKET, ptr %6, i32 0, i32 0
  %8 = load ptr, ptr %7, align 8, !tbaa !256
  %9 = getelementptr inbounds nuw i8, ptr %8, i64 %5
  store ptr %9, ptr %7, align 8, !tbaa !256
  %10 = load i64, ptr %4, align 8, !tbaa !9
  %11 = load ptr, ptr %3, align 8, !tbaa !3
  %12 = getelementptr inbounds nuw %struct.PACKET, ptr %11, i32 0, i32 1
  %13 = load i64, ptr %12, align 8, !tbaa !257
  %14 = sub i64 %13, %10
  store i64 %14, ptr %12, align 8, !tbaa !257
  ret void
}

; Function Attrs: inlinehint nounwind uwtable
define internal i32 @PACKET_peek_net_2(ptr noundef %0, ptr noundef %1) #3 {
  %3 = alloca i32, align 4
  %4 = alloca ptr, align 8
  %5 = alloca ptr, align 8
  store ptr %0, ptr %4, align 8, !tbaa !3
  store ptr %1, ptr %5, align 8, !tbaa !144
  %6 = load ptr, ptr %4, align 8, !tbaa !3
  %7 = call i64 @PACKET_remaining(ptr noundef %6)
  %8 = icmp ult i64 %7, 2
  br i1 %8, label %9, label %10

9:                                                ; preds = %2
  store i32 0, ptr %3, align 4
  br label %27

10:                                               ; preds = %2
  %11 = load ptr, ptr %4, align 8, !tbaa !3
  %12 = getelementptr inbounds nuw %struct.PACKET, ptr %11, i32 0, i32 0
  %13 = load ptr, ptr %12, align 8, !tbaa !256
  %14 = load i8, ptr %13, align 1, !tbaa !211
  %15 = zext i8 %14 to i32
  %16 = shl i32 %15, 8
  %17 = load ptr, ptr %5, align 8, !tbaa !144
  store i32 %16, ptr %17, align 4, !tbaa !13
  %18 = load ptr, ptr %4, align 8, !tbaa !3
  %19 = getelementptr inbounds nuw %struct.PACKET, ptr %18, i32 0, i32 0
  %20 = load ptr, ptr %19, align 8, !tbaa !256
  %21 = getelementptr inbounds i8, ptr %20, i64 1
  %22 = load i8, ptr %21, align 1, !tbaa !211
  %23 = zext i8 %22 to i32
  %24 = load ptr, ptr %5, align 8, !tbaa !144
  %25 = load i32, ptr %24, align 4, !tbaa !13
  %26 = or i32 %25, %23
  store i32 %26, ptr %24, align 4, !tbaa !13
  store i32 1, ptr %3, align 4
  br label %27

27:                                               ; preds = %10, %9
  %28 = load i32, ptr %3, align 4
  ret i32 %28
}

; Function Attrs: inlinehint nounwind uwtable
define internal i32 @PACKET_get_bytes(ptr noundef %0, ptr noundef %1, i64 noundef %2) #3 {
  %4 = alloca i32, align 4
  %5 = alloca ptr, align 8
  %6 = alloca ptr, align 8
  %7 = alloca i64, align 8
  store ptr %0, ptr %5, align 8, !tbaa !3
  store ptr %1, ptr %6, align 8, !tbaa !7
  store i64 %2, ptr %7, align 8, !tbaa !9
  %8 = load ptr, ptr %5, align 8, !tbaa !3
  %9 = load ptr, ptr %6, align 8, !tbaa !7
  %10 = load i64, ptr %7, align 8, !tbaa !9
  %11 = call i32 @PACKET_peek_bytes(ptr noundef %8, ptr noundef %9, i64 noundef %10)
  %12 = icmp ne i32 %11, 0
  br i1 %12, label %14, label %13

13:                                               ; preds = %3
  store i32 0, ptr %4, align 4
  br label %17

14:                                               ; preds = %3
  %15 = load ptr, ptr %5, align 8, !tbaa !3
  %16 = load i64, ptr %7, align 8, !tbaa !9
  call void @packet_forward(ptr noundef %15, i64 noundef %16)
  store i32 1, ptr %4, align 4
  br label %17

17:                                               ; preds = %14, %13
  %18 = load i32, ptr %4, align 4
  ret i32 %18
}

; Function Attrs: inlinehint nounwind uwtable
define internal i32 @PACKET_get_net_2(ptr noundef %0, ptr noundef %1) #3 {
  %3 = alloca i32, align 4
  %4 = alloca ptr, align 8
  %5 = alloca ptr, align 8
  store ptr %0, ptr %4, align 8, !tbaa !3
  store ptr %1, ptr %5, align 8, !tbaa !144
  %6 = load ptr, ptr %4, align 8, !tbaa !3
  %7 = load ptr, ptr %5, align 8, !tbaa !144
  %8 = call i32 @PACKET_peek_net_2(ptr noundef %6, ptr noundef %7)
  %9 = icmp ne i32 %8, 0
  br i1 %9, label %11, label %10

10:                                               ; preds = %2
  store i32 0, ptr %3, align 4
  br label %13

11:                                               ; preds = %2
  %12 = load ptr, ptr %4, align 8, !tbaa !3
  call void @packet_forward(ptr noundef %12, i64 noundef 2)
  store i32 1, ptr %3, align 4
  br label %13

13:                                               ; preds = %11, %10
  %14 = load i32, ptr %3, align 4
  ret i32 %14
}

; Function Attrs: nounwind uwtable
define internal i32 @tls_process_cke_srp(ptr noundef %0, ptr noundef %1) #0 {
  %3 = alloca i32, align 4
  %4 = alloca ptr, align 8
  %5 = alloca ptr, align 8
  %6 = alloca i32, align 4
  %7 = alloca ptr, align 8
  %8 = alloca i32, align 4
  store ptr %0, ptr %4, align 8, !tbaa !11
  store ptr %1, ptr %5, align 8, !tbaa !3
  call void @llvm.lifetime.start.p0(i64 4, ptr %6) #9
  call void @llvm.lifetime.start.p0(i64 8, ptr %7) #9
  %9 = load ptr, ptr %5, align 8, !tbaa !3
  %10 = call i32 @PACKET_get_net_2(ptr noundef %9, ptr noundef %6)
  %11 = icmp ne i32 %10, 0
  br i1 %11, label %12, label %18

12:                                               ; preds = %2
  %13 = load ptr, ptr %5, align 8, !tbaa !3
  %14 = load i32, ptr %6, align 4, !tbaa !13
  %15 = zext i32 %14 to i64
  %16 = call i32 @PACKET_get_bytes(ptr noundef %13, ptr noundef %7, i64 noundef %15)
  %17 = icmp ne i32 %16, 0
  br i1 %17, label %20, label %18

18:                                               ; preds = %12, %2
  call void @ERR_new()
  call void @ERR_set_debug(ptr noundef @.str.1, i32 noundef 3172, ptr noundef @__func__.tls_process_cke_srp)
  %19 = load ptr, ptr %4, align 8, !tbaa !11
  call void (ptr, i32, i32, ptr, ...) @ossl_statem_fatal(ptr noundef %19, i32 noundef 50, i32 noundef 347, ptr noundef null)
  store i32 0, ptr %3, align 4
  store i32 1, ptr %8, align 4
  br label %79

20:                                               ; preds = %12
  %21 = load ptr, ptr %7, align 8, !tbaa !168
  %22 = load i32, ptr %6, align 4, !tbaa !13
  %23 = call ptr @BN_bin2bn(ptr noundef %21, i32 noundef %22, ptr noundef null)
  %24 = load ptr, ptr %4, align 8, !tbaa !11
  %25 = getelementptr inbounds nuw %struct.ssl_connection_st, ptr %24, i32 0, i32 102
  %26 = getelementptr inbounds nuw %struct.srp_ctx_st, ptr %25, i32 0, i32 9
  store ptr %23, ptr %26, align 8, !tbaa !298
  %27 = icmp eq ptr %23, null
  br i1 %27, label %28, label %30

28:                                               ; preds = %20
  call void @ERR_new()
  call void @ERR_set_debug(ptr noundef @.str.1, i32 noundef 3176, ptr noundef @__func__.tls_process_cke_srp)
  %29 = load ptr, ptr %4, align 8, !tbaa !11
  call void (ptr, i32, i32, ptr, ...) @ossl_statem_fatal(ptr noundef %29, i32 noundef 80, i32 noundef 524291, ptr noundef null)
  store i32 0, ptr %3, align 4
  store i32 1, ptr %8, align 4
  br label %79

30:                                               ; preds = %20
  %31 = load ptr, ptr %4, align 8, !tbaa !11
  %32 = getelementptr inbounds nuw %struct.ssl_connection_st, ptr %31, i32 0, i32 102
  %33 = getelementptr inbounds nuw %struct.srp_ctx_st, ptr %32, i32 0, i32 9
  %34 = load ptr, ptr %33, align 8, !tbaa !298
  %35 = load ptr, ptr %4, align 8, !tbaa !11
  %36 = getelementptr inbounds nuw %struct.ssl_connection_st, ptr %35, i32 0, i32 102
  %37 = getelementptr inbounds nuw %struct.srp_ctx_st, ptr %36, i32 0, i32 5
  %38 = load ptr, ptr %37, align 8, !tbaa !190
  %39 = call i32 @BN_ucmp(ptr noundef %34, ptr noundef %38)
  %40 = icmp sge i32 %39, 0
  br i1 %40, label %48, label %41

41:                                               ; preds = %30
  %42 = load ptr, ptr %4, align 8, !tbaa !11
  %43 = getelementptr inbounds nuw %struct.ssl_connection_st, ptr %42, i32 0, i32 102
  %44 = getelementptr inbounds nuw %struct.srp_ctx_st, ptr %43, i32 0, i32 9
  %45 = load ptr, ptr %44, align 8, !tbaa !298
  %46 = call i32 @BN_is_zero(ptr noundef %45)
  %47 = icmp ne i32 %46, 0
  br i1 %47, label %48, label %50

48:                                               ; preds = %41, %30
  call void @ERR_new()
  call void @ERR_set_debug(ptr noundef @.str.1, i32 noundef 3180, ptr noundef @__func__.tls_process_cke_srp)
  %49 = load ptr, ptr %4, align 8, !tbaa !11
  call void (ptr, i32, i32, ptr, ...) @ossl_statem_fatal(ptr noundef %49, i32 noundef 47, i32 noundef 371, ptr noundef null)
  store i32 0, ptr %3, align 4
  store i32 1, ptr %8, align 4
  br label %79

50:                                               ; preds = %41
  %51 = load ptr, ptr %4, align 8, !tbaa !11
  %52 = getelementptr inbounds nuw %struct.ssl_connection_st, ptr %51, i32 0, i32 54
  %53 = load ptr, ptr %52, align 8, !tbaa !97
  %54 = getelementptr inbounds nuw %struct.ssl_session_st, ptr %53, i32 0, i32 24
  %55 = load ptr, ptr %54, align 8, !tbaa !299
  call void @CRYPTO_free(ptr noundef %55, ptr noundef @.str.1, i32 noundef 3183)
  %56 = load ptr, ptr %4, align 8, !tbaa !11
  %57 = getelementptr inbounds nuw %struct.ssl_connection_st, ptr %56, i32 0, i32 102
  %58 = getelementptr inbounds nuw %struct.srp_ctx_st, ptr %57, i32 0, i32 4
  %59 = load ptr, ptr %58, align 8, !tbaa !291
  %60 = call noalias ptr @CRYPTO_strdup(ptr noundef %59, ptr noundef @.str.1, i32 noundef 3184)
  %61 = load ptr, ptr %4, align 8, !tbaa !11
  %62 = getelementptr inbounds nuw %struct.ssl_connection_st, ptr %61, i32 0, i32 54
  %63 = load ptr, ptr %62, align 8, !tbaa !97
  %64 = getelementptr inbounds nuw %struct.ssl_session_st, ptr %63, i32 0, i32 24
  store ptr %60, ptr %64, align 8, !tbaa !299
  %65 = load ptr, ptr %4, align 8, !tbaa !11
  %66 = getelementptr inbounds nuw %struct.ssl_connection_st, ptr %65, i32 0, i32 54
  %67 = load ptr, ptr %66, align 8, !tbaa !97
  %68 = getelementptr inbounds nuw %struct.ssl_session_st, ptr %67, i32 0, i32 24
  %69 = load ptr, ptr %68, align 8, !tbaa !299
  %70 = icmp eq ptr %69, null
  br i1 %70, label %71, label %73

71:                                               ; preds = %50
  call void @ERR_new()
  call void @ERR_set_debug(ptr noundef @.str.1, i32 noundef 3186, ptr noundef @__func__.tls_process_cke_srp)
  %72 = load ptr, ptr %4, align 8, !tbaa !11
  call void (ptr, i32, i32, ptr, ...) @ossl_statem_fatal(ptr noundef %72, i32 noundef 80, i32 noundef 524303, ptr noundef null)
  store i32 0, ptr %3, align 4
  store i32 1, ptr %8, align 4
  br label %79

73:                                               ; preds = %50
  %74 = load ptr, ptr %4, align 8, !tbaa !11
  %75 = call i32 @srp_generate_server_master_secret(ptr noundef %74)
  %76 = icmp ne i32 %75, 0
  br i1 %76, label %78, label %77

77:                                               ; preds = %73
  store i32 0, ptr %3, align 4
  store i32 1, ptr %8, align 4
  br label %79

78:                                               ; preds = %73
  store i32 1, ptr %3, align 4
  store i32 1, ptr %8, align 4
  br label %79

79:                                               ; preds = %78, %77, %71, %48, %28, %18
  call void @llvm.lifetime.end.p0(i64 8, ptr %7) #9
  call void @llvm.lifetime.end.p0(i64 4, ptr %6) #9
  %80 = load i32, ptr %3, align 4
  ret i32 %80
}