; Function Attrs: nounwind uwtable
define internal fastcc range(i32 0, 2) i32 @tls_process_cke_srp(ptr noundef %0, ptr noundef captures(none) %1) unnamed_addr #1 {
  %3 = getelementptr i8, ptr %1, i64 8
  %.val.i.i = load i64, ptr %3, align 8, !tbaa !220
  %4 = icmp ult i64 %.val.i.i, 2
  br i1 %4, label %PACKET_get_net_2.exit.thread, label %5

5:                                                ; preds = %2
  %6 = load ptr, ptr %1, align 8, !tbaa !221
  %7 = load i8, ptr %6, align 1, !tbaa !193
  %8 = zext i8 %7 to i32
  %9 = shl nuw nsw i32 %8, 8
  %10 = getelementptr inbounds nuw i8, ptr %6, i64 1
  %11 = load i8, ptr %10, align 1, !tbaa !193
  %12 = zext i8 %11 to i32
  %13 = or disjoint i32 %9, %12
  %14 = getelementptr inbounds nuw i8, ptr %6, i64 2
  store ptr %14, ptr %1, align 8, !tbaa !221
  %15 = add i64 %.val.i.i, -2
  store i64 %15, ptr %3, align 8, !tbaa !220
  %16 = zext nneg i32 %13 to i64
  %17 = icmp ult i64 %15, %16
  br i1 %17, label %PACKET_get_net_2.exit.thread, label %18

PACKET_get_net_2.exit.thread:                     ; preds = %5, %2
  tail call void @ERR_new() #12
  tail call void @ERR_set_debug(ptr noundef nonnull @.str.1, i32 noundef 3172, ptr noundef nonnull @__func__.tls_process_cke_srp) #12
  tail call void (ptr, i32, i32, ptr, ...) @ossl_statem_fatal(ptr noundef %0, i32 noundef 50, i32 noundef 347, ptr noundef null) #12
  br label %48

18:                                               ; preds = %5
  %19 = getelementptr inbounds nuw i8, ptr %14, i64 %16
  store ptr %19, ptr %1, align 8, !tbaa !221
  %20 = sub nuw i64 %15, %16
  store i64 %20, ptr %3, align 8, !tbaa !220
  %21 = tail call ptr @BN_bin2bn(ptr noundef nonnull %14, i32 noundef %13, ptr noundef null) #12
  %22 = getelementptr inbounds nuw i8, ptr %0, i64 3096
  store ptr %21, ptr %22, align 8, !tbaa !280
  %23 = icmp eq ptr %21, null
  br i1 %23, label %24, label %25

24:                                               ; preds = %18
  tail call void @ERR_new() #12
  tail call void @ERR_set_debug(ptr noundef nonnull @.str.1, i32 noundef 3176, ptr noundef nonnull @__func__.tls_process_cke_srp) #12
  tail call void (ptr, i32, i32, ptr, ...) @ossl_statem_fatal(ptr noundef nonnull %0, i32 noundef 80, i32 noundef 524291, ptr noundef null) #12
  br label %48

25:                                               ; preds = %18
  %26 = getelementptr inbounds nuw i8, ptr %0, i64 3064
  %27 = load ptr, ptr %26, align 8, !tbaa !171
  %28 = tail call i32 @BN_ucmp(ptr noundef nonnull %21, ptr noundef %27) #12
  %29 = icmp sgt i32 %28, -1
  br i1 %29, label %33, label %30

30:                                               ; preds = %25
  %31 = load ptr, ptr %22, align 8, !tbaa !280
  %32 = tail call i32 @BN_is_zero(ptr noundef %31) #12
  %.not17 = icmp eq i32 %32, 0
  br i1 %.not17, label %34, label %33

33:                                               ; preds = %30, %25
  tail call void @ERR_new() #12
  tail call void @ERR_set_debug(ptr noundef nonnull @.str.1, i32 noundef 3180, ptr noundef nonnull @__func__.tls_process_cke_srp) #12
  tail call void (ptr, i32, i32, ptr, ...) @ossl_statem_fatal(ptr noundef nonnull %0, i32 noundef 47, i32 noundef 371, ptr noundef null) #12
  br label %48

34:                                               ; preds = %30
  %35 = getelementptr inbounds nuw i8, ptr %0, i64 2304
  %36 = load ptr, ptr %35, align 8, !tbaa !79
  %37 = getelementptr inbounds nuw i8, ptr %36, i64 864
  %38 = load ptr, ptr %37, align 8, !tbaa !281
  tail call void @CRYPTO_free(ptr noundef %38, ptr noundef nonnull @.str.1, i32 noundef 3183) #12
  %39 = getelementptr inbounds nuw i8, ptr %0, i64 3056
  %40 = load ptr, ptr %39, align 8, !tbaa !273
  %41 = tail call noalias ptr @CRYPTO_strdup(ptr noundef %40, ptr noundef nonnull @.str.1, i32 noundef 3184) #12
  %42 = load ptr, ptr %35, align 8, !tbaa !79
  %43 = getelementptr inbounds nuw i8, ptr %42, i64 864
  store ptr %41, ptr %43, align 8, !tbaa !281
  %44 = icmp eq ptr %41, null
  br i1 %44, label %45, label %46

45:                                               ; preds = %34
  tail call void @ERR_new() #12
  tail call void @ERR_set_debug(ptr noundef nonnull @.str.1, i32 noundef 3186, ptr noundef nonnull @__func__.tls_process_cke_srp) #12
  tail call void (ptr, i32, i32, ptr, ...) @ossl_statem_fatal(ptr noundef nonnull %0, i32 noundef 80, i32 noundef 524303, ptr noundef null) #12
  br label %48

46:                                               ; preds = %34
  %47 = tail call i32 @srp_generate_server_master_secret(ptr noundef nonnull %0) #12
  %.not18 = icmp ne i32 %47, 0
  %. = zext i1 %.not18 to i32
  br label %48

48:                                               ; preds = %46, %45, %33, %24, %PACKET_get_net_2.exit.thread
  %.0 = phi i32 [ 0, %24 ], [ 0, %33 ], [ 0, %45 ], [ 0, %PACKET_get_net_2.exit.thread ], [ %., %46 ]
  ret i32 %.0
}